; Function Attrs: nounwind sspstrong uwtable
define internal i64 @deflate_run(i64 noundef %0) #0 {
  %2 = alloca %struct.zstream_run_args, align 8
  %3 = inttoptr i64 %0 to ptr
  %4 = load i64, ptr %3, align 8, !tbaa !6
  %5 = inttoptr i64 %4 to ptr
  %6 = getelementptr inbounds nuw i8, ptr %3, i64 8
  %7 = load i64, ptr %6, align 8, !tbaa !6
  %8 = inttoptr i64 %7 to ptr
  %9 = load i64, ptr %8, align 8, !tbaa !16, !noalias !223
  %10 = and i64 %9, 8192
  %.not.i.i = icmp eq i64 %10, 0
  %11 = getelementptr inbounds nuw i8, ptr %8, i64 24
  br i1 %.not.i.i, label %RSTRING_PTR.exit, label %12

12:                                               ; preds = %1
  %.sroa.2.0.copyload.i = load ptr, ptr %11, align 8
  br label %RSTRING_PTR.exit

RSTRING_PTR.exit:                                 ; preds = %1, %12
  %.sroa.2.0.i = phi ptr [ %.sroa.2.0.copyload.i, %12 ], [ %11, %1 ]
  %13 = getelementptr inbounds nuw i8, ptr %8, i64 16
  %14 = load i64, ptr %13, align 8, !tbaa !21
  call void @llvm.lifetime.start.p0(i64 40, ptr nonnull %2) #18
  store ptr %5, ptr %2, align 8, !tbaa !61
  %15 = getelementptr inbounds nuw i8, ptr %2, i64 8
  store ptr %.sroa.2.0.i, ptr %15, align 8, !tbaa !64
  %16 = getelementptr inbounds nuw i8, ptr %2, i64 16
  store i64 %14, ptr %16, align 8, !tbaa !65
  %17 = getelementptr inbounds nuw i8, ptr %2, i64 24
  store i32 4, ptr %17, align 8, !tbaa !66
  %18 = getelementptr inbounds nuw i8, ptr %2, i64 28
  store i32 0, ptr %18, align 4, !tbaa !67
  %19 = getelementptr inbounds nuw i8, ptr %2, i64 32
  store i32 0, ptr %19, align 8, !tbaa !68
  %20 = getelementptr inbounds nuw i8, ptr %2, i64 36
  %21 = load i64, ptr %5, align 8, !tbaa !42
  %22 = and i64 %21, 16
  %.not.i = icmp eq i64 %22, 0
  br i1 %.not.i, label %23, label %27

23:                                               ; preds = %RSTRING_PTR.exit
  %24 = tail call i32 @rb_block_given_p() #18
  %25 = icmp ne i32 %24, 0
  %26 = zext i1 %25 to i32
  br label %27

27:                                               ; preds = %23, %RSTRING_PTR.exit
  %28 = phi i32 [ 0, %RSTRING_PTR.exit ], [ %26, %23 ]
  store i32 %28, ptr %20, align 4, !tbaa !69
  %29 = ptrtoint ptr %2 to i64
  %30 = call i64 @rb_ensure(ptr noundef nonnull @zstream_run_try, i64 noundef %29, ptr noundef nonnull @zstream_run_ensure, i64 noundef %29) #18
  %31 = load i32, ptr %19, align 8, !tbaa !68
  %.not4.i = icmp eq i32 %31, 0
  br i1 %.not4.i, label %zstream_run.exit, label %32

32:                                               ; preds = %27
  call void @rb_jump_tag(i32 noundef %31) #19
  unreachable

zstream_run.exit:                                 ; preds = %27
  call void @llvm.lifetime.end.p0(i64 40, ptr nonnull %2) #18
  %33 = call fastcc i64 @zstream_detach_buffer(ptr noundef nonnull %5)
  ret i64 %33
}